target datalayout = "e-m:e-p270:32:32-p271:32:32-p272:64:64-i64:64-i128:128-f80:128-n8:16:32:64-S128"
target triple = "x86_64-pc-linux-gnu"

%struct.vec = type { double, double, double }
%struct.vec.19 = type { double, double }
%class.Model = type { %"class.std::vector", %"class.std::vector", %"class.std::vector.3", %"class.std::vector.8", %"class.std::vector.8", %"class.std::vector.8", %struct.TGAImage, %struct.TGAImage, %struct.TGAImage }
%"class.std::vector" = type { %"struct.std::_Vector_base" }
%"struct.std::_Vector_base" = type { %"struct.std::_Vector_base<vec<3>, std::allocator<vec<3>>>::_Vector_impl" }
%"struct.std::_Vector_base<vec<3>, std::allocator<vec<3>>>::_Vector_impl" = type { %"struct.std::_Vector_base<vec<3>, std::allocator<vec<3>>>::_Vector_impl_data" }
%"struct.std::_Vector_base<vec<3>, std::allocator<vec<3>>>::_Vector_impl_data" = type { ptr, ptr, ptr }
%"class.std::vector.3" = type { %"struct.std::_Vector_base.4" }
%"struct.std::_Vector_base.4" = type { %"struct.std::_Vector_base<vec<2>, std::allocator<vec<2>>>::_Vector_impl" }
%"struct.std::_Vector_base<vec<2>, std::allocator<vec<2>>>::_Vector_impl" = type { %"struct.std::_Vector_base<vec<2>, std::allocator<vec<2>>>::_Vector_impl_data" }
%"struct.std::_Vector_base<vec<2>, std::allocator<vec<2>>>::_Vector_impl_data" = type { ptr, ptr, ptr }
%"class.std::vector.8" = type { %"struct.std::_Vector_base.9" }
%"struct.std::_Vector_base.9" = type { %"struct.std::_Vector_base<int, std::allocator<int>>::_Vector_impl" }
%"struct.std::_Vector_base<int, std::allocator<int>>::_Vector_impl" = type { %"struct.std::_Vector_base<int, std::allocator<int>>::_Vector_impl_data" }
%"struct.std::_Vector_base<int, std::allocator<int>>::_Vector_impl_data" = type { ptr, ptr, ptr }
%struct.TGAImage = type { i32, i32, i8, %"class.std::vector.13" }
%"class.std::vector.13" = type { %"struct.std::_Vector_base.14" }
%"struct.std::_Vector_base.14" = type { %"struct.std::_Vector_base<unsigned char, std::allocator<unsigned char>>::_Vector_impl" }
%"struct.std::_Vector_base<unsigned char, std::allocator<unsigned char>>::_Vector_impl" = type { %"struct.std::_Vector_base<unsigned char, std::allocator<unsigned char>>::_Vector_impl_data" }
%"struct.std::_Vector_base<unsigned char, std::allocator<unsigned char>>::_Vector_impl_data" = type { ptr, ptr, ptr }
%struct.TGAColor = type { [4 x i8], i8 }

; Function Attrs: mustprogress nounwind uwtable
define linkonce_odr dso_local noundef double @_ZNK3vecILi3EEixEi(ptr noundef nonnull align 8 dereferenceable(24) %0, i32 noundef %1) #6 comdat align 2 {
  %3 = alloca ptr, align 8
  %4 = alloca i32, align 4
  store ptr %0, ptr %3, align 8, !tbaa !62
  store i32 %1, ptr %4, align 4, !tbaa !14
  %5 = load ptr, ptr %3, align 8
  %6 = load i32, ptr %4, align 4, !tbaa !14
  %7 = icmp ne i32 %6, 0
  br i1 %7, label %8, label %19

8:                                                ; preds = %2
  %9 = load i32, ptr %4, align 4, !tbaa !14
  %10 = icmp eq i32 1, %9
  br i1 %10, label %11, label %14

11:                                               ; preds = %8
  %12 = getelementptr inbounds nuw %struct.vec, ptr %5, i32 0, i32 1
  %13 = load double, ptr %12, align 8, !tbaa !66
  br label %17

14:                                               ; preds = %8
  %15 = getelementptr inbounds nuw %struct.vec, ptr %5, i32 0, i32 2
  %16 = load double, ptr %15, align 8, !tbaa !67
  br label %17

17:                                               ; preds = %14, %11
  %18 = phi double [ %13, %11 ], [ %16, %14 ]
  br label %22

19:                                               ; preds = %2
  %20 = getelementptr inbounds nuw %struct.vec, ptr %5, i32 0, i32 0
  %21 = load double, ptr %20, align 8, !tbaa !64
  br label %22

22:                                               ; preds = %19, %17
  %23 = phi double [ %18, %17 ], [ %21, %19 ]
  ret double %23
}

; Function Attrs: mustprogress nounwind uwtable
define linkonce_odr dso_local noundef nonnull align 8 dereferenceable(8) ptr @_ZN3vecILi3EEixEi(ptr noundef nonnull align 8 dereferenceable(24) %0, i32 noundef %1) #6 comdat align 2 {
  %3 = alloca ptr, align 8
  %4 = alloca i32, align 4
  store ptr %0, ptr %3, align 8, !tbaa !62
  store i32 %1, ptr %4, align 4, !tbaa !14
  %5 = load ptr, ptr %3, align 8
  %6 = load i32, ptr %4, align 4, !tbaa !14
  %7 = icmp ne i32 %6, 0
  br i1 %7, label %8, label %17

8:                                                ; preds = %2
  %9 = load i32, ptr %4, align 4, !tbaa !14
  %10 = icmp eq i32 1, %9
  br i1 %10, label %11, label %13

11:                                               ; preds = %8
  %12 = getelementptr inbounds nuw %struct.vec, ptr %5, i32 0, i32 1
  br label %15

13:                                               ; preds = %8
  %14 = getelementptr inbounds nuw %struct.vec, ptr %5, i32 0, i32 2
  br label %15

15:                                               ; preds = %13, %11
  %16 = phi ptr [ %12, %11 ], [ %14, %13 ]
  br label %19

17:                                               ; preds = %2
  %18 = getelementptr inbounds nuw %struct.vec, ptr %5, i32 0, i32 0
  br label %19

19:                                               ; preds = %17, %15
  %20 = phi ptr [ %16, %15 ], [ %18, %17 ]
  ret ptr %20
}

; Function Attrs: mustprogress nounwind uwtable
define linkonce_odr dso_local void @_ZmiILi3EE3vecIXT_EERKS1_S3_(ptr dead_on_unwind noalias writable sret(%struct.vec) align 8 %0, ptr noundef nonnull align 8 dereferenceable(24) %1, ptr noundef nonnull align 8 dereferenceable(24) %2) #6 comdat {
  %4 = alloca ptr, align 8
  %5 = alloca ptr, align 8
  %6 = alloca i32, align 4
  store ptr %1, ptr %4, align 8, !tbaa !62
  store ptr %2, ptr %5, align 8, !tbaa !62
  %7 = load ptr, ptr %4, align 8, !tbaa !62
  call void @llvm.memcpy.p0.p0.i64(ptr align 8 %0, ptr align 8 %7, i64 24, i1 false), !tbaa.struct !203
  call void @llvm.lifetime.start.p0(i64 4, ptr %6) #3
  store i32 3, ptr %6, align 4, !tbaa !14
  br label %8

8:                                                ; preds = %14, %3
  %9 = load i32, ptr %6, align 4, !tbaa !14
  %10 = add nsw i32 %9, -1
  store i32 %10, ptr %6, align 4, !tbaa !14
  %11 = icmp ne i32 %9, 0
  br i1 %11, label %13, label %12

12:                                               ; preds = %8
  call void @llvm.lifetime.end.p0(i64 4, ptr %6) #3
  br label %22

13:                                               ; preds = %8
  br label %14

14:                                               ; preds = %13
  %15 = load ptr, ptr %5, align 8, !tbaa !62
  %16 = load i32, ptr %6, align 4, !tbaa !14
  %17 = call noundef double @_ZNK3vecILi3EEixEi(ptr noundef nonnull align 8 dereferenceable(24) %15, i32 noundef %16)
  %18 = load i32, ptr %6, align 4, !tbaa !14
  %19 = call noundef nonnull align 8 dereferenceable(8) ptr @_ZN3vecILi3EEixEi(ptr noundef nonnull align 8 dereferenceable(24) %0, i32 noundef %18)
  %20 = load double, ptr %19, align 8, !tbaa !73
  %21 = fsub double %20, %17
  store double %21, ptr %19, align 8, !tbaa !73
  br label %8, !llvm.loop !228

22:                                               ; preds = %12
  ret void
}

; Function Attrs: mustprogress nounwind uwtable
define linkonce_odr dso_local void @_ZdvILi3EE3vecIXT_EERKS1_RKd(ptr dead_on_unwind noalias writable sret(%struct.vec) align 8 %0, ptr noundef nonnull align 8 dereferenceable(24) %1, ptr noundef nonnull align 8 dereferenceable(8) %2) #6 comdat {
  %4 = alloca ptr, align 8
  %5 = alloca ptr, align 8
  %6 = alloca i32, align 4
  store ptr %1, ptr %4, align 8, !tbaa !62
  store ptr %2, ptr %5, align 8, !tbaa !68
  %7 = load ptr, ptr %4, align 8, !tbaa !62
  call void @llvm.memcpy.p0.p0.i64(ptr align 8 %0, ptr align 8 %7, i64 24, i1 false), !tbaa.struct !203
  call void @llvm.lifetime.start.p0(i64 4, ptr %6) #3
  store i32 3, ptr %6, align 4, !tbaa !14
  br label %8

8:                                                ; preds = %14, %3
  %9 = load i32, ptr %6, align 4, !tbaa !14
  %10 = add nsw i32 %9, -1
  store i32 %10, ptr %6, align 4, !tbaa !14
  %11 = icmp ne i32 %9, 0
  br i1 %11, label %13, label %12

12:                                               ; preds = %8
  call void @llvm.lifetime.end.p0(i64 4, ptr %6) #3
  br label %21

13:                                               ; preds = %8
  br label %14

14:                                               ; preds = %13
  %15 = load ptr, ptr %5, align 8, !tbaa !68
  %16 = load double, ptr %15, align 8, !tbaa !73
  %17 = load i32, ptr %6, align 4, !tbaa !14
  %18 = call noundef nonnull align 8 dereferenceable(8) ptr @_ZN3vecILi3EEixEi(ptr noundef nonnull align 8 dereferenceable(24) %0, i32 noundef %17)
  %19 = load double, ptr %18, align 8, !tbaa !73
  %20 = fdiv double %19, %16
  store double %20, ptr %18, align 8, !tbaa !73
  br label %8, !llvm.loop !211

21:                                               ; preds = %12
  ret void
}

; Function Attrs: mustprogress nounwind uwtable
define linkonce_odr dso_local void @_ZmlILi3EE3vecIXT_EERKS1_RKd(ptr dead_on_unwind noalias writable sret(%struct.vec) align 8 %0, ptr noundef nonnull align 8 dereferenceable(24) %1, ptr noundef nonnull align 8 dereferenceable(8) %2) #6 comdat {
  %4 = alloca ptr, align 8
  %5 = alloca ptr, align 8
  %6 = alloca i32, align 4
  store ptr %1, ptr %4, align 8, !tbaa !62
  store ptr %2, ptr %5, align 8, !tbaa !68
  %7 = load ptr, ptr %4, align 8, !tbaa !62
  call void @llvm.memcpy.p0.p0.i64(ptr align 8 %0, ptr align 8 %7, i64 24, i1 false), !tbaa.struct !203
  call void @llvm.lifetime.start.p0(i64 4, ptr %6) #3
  store i32 3, ptr %6, align 4, !tbaa !14
  br label %8

8:                                                ; preds = %14, %3
  %9 = load i32, ptr %6, align 4, !tbaa !14
  %10 = add nsw i32 %9, -1
  store i32 %10, ptr %6, align 4, !tbaa !14
  %11 = icmp ne i32 %9, 0
  br i1 %11, label %13, label %12

12:                                               ; preds = %8
  call void @llvm.lifetime.end.p0(i64 4, ptr %6) #3
  br label %21

13:                                               ; preds = %8
  br label %14

14:                                               ; preds = %13
  %15 = load ptr, ptr %5, align 8, !tbaa !68
  %16 = load double, ptr %15, align 8, !tbaa !73
  %17 = load i32, ptr %6, align 4, !tbaa !14
  %18 = call noundef nonnull align 8 dereferenceable(8) ptr @_ZN3vecILi3EEixEi(ptr noundef nonnull align 8 dereferenceable(24) %0, i32 noundef %17)
  %19 = load double, ptr %18, align 8, !tbaa !73
  %20 = fmul double %19, %16
  store double %20, ptr %18, align 8, !tbaa !73
  br label %8, !llvm.loop !229

21:                                               ; preds = %12
  ret void
}

; Function Attrs: mustprogress nounwind uwtable
define linkonce_odr dso_local noundef nonnull align 1 dereferenceable(1) ptr @_ZN8TGAColorixEi(ptr noundef nonnull align 1 dereferenceable(5) %0, i32 noundef %1) #6 comdat align 2 {
  %3 = alloca ptr, align 8
  %4 = alloca i32, align 4
  store ptr %0, ptr %3, align 8, !tbaa !230
  store i32 %1, ptr %4, align 4, !tbaa !14
  %5 = load ptr, ptr %3, align 8
  %6 = getelementptr inbounds nuw %struct.TGAColor, ptr %5, i32 0, i32 0
  %7 = load i32, ptr %4, align 4, !tbaa !14
  %8 = sext i32 %7 to i64
  %9 = getelementptr inbounds [4 x i8], ptr %6, i64 0, i64 %8
  ret ptr %9
}

; Function Attrs: mustprogress nounwind uwtable
define linkonce_odr dso_local noundef double @_ZNK3vecILi2EEixEi(ptr noundef nonnull align 8 dereferenceable(16) %0, i32 noundef %1) #6 comdat align 2 {
  %3 = alloca ptr, align 8
  %4 = alloca i32, align 4
  store ptr %0, ptr %3, align 8, !tbaa !74
  store i32 %1, ptr %4, align 4, !tbaa !14
  %5 = load ptr, ptr %3, align 8
  %6 = load i32, ptr %4, align 4, !tbaa !14
  %7 = icmp ne i32 %6, 0
  br i1 %7, label %8, label %11

8:                                                ; preds = %2
  %9 = getelementptr inbounds nuw %struct.vec.19, ptr %5, i32 0, i32 1
  %10 = load double, ptr %9, align 8, !tbaa !27
  br label %14

11:                                               ; preds = %2
  %12 = getelementptr inbounds nuw %struct.vec.19, ptr %5, i32 0, i32 0
  %13 = load double, ptr %12, align 8, !tbaa !24
  br label %14

14:                                               ; preds = %11, %8
  %15 = phi double [ %10, %8 ], [ %13, %11 ]
  ret double %15
}

; Function Attrs: mustprogress uwtable
define dso_local void @_ZNK5Model6normalERK3vecILi2EE(ptr dead_on_unwind noalias writable sret(%struct.vec) align 8 %0, ptr noundef nonnull align 8 dereferenceable(264) %1, ptr noundef nonnull align 8 dereferenceable(16) %2) #4 align 2 {
  %4 = alloca ptr, align 8
  %5 = alloca ptr, align 8
  %6 = alloca %struct.TGAColor, align 1
  %7 = alloca %struct.vec, align 8
  %8 = alloca %struct.vec, align 8
  %9 = alloca %struct.vec, align 8
  %10 = alloca double, align 8
  %11 = alloca double, align 8
  %12 = alloca %struct.vec, align 8
  store ptr %1, ptr %4, align 8, !tbaa !5
  store ptr %2, ptr %5, align 8, !tbaa !74
  %13 = load ptr, ptr %4, align 8
  call void @llvm.lifetime.start.p0(i64 5, ptr %6) #3
  %14 = getelementptr inbounds nuw %class.Model, ptr %13, i32 0, i32 7
  %15 = load ptr, ptr %5, align 8, !tbaa !74
  %16 = call noundef double @_ZNK3vecILi2EEixEi(ptr noundef nonnull align 8 dereferenceable(16) %15, i32 noundef 0)
  %17 = getelementptr inbounds nuw %class.Model, ptr %13, i32 0, i32 7
  %18 = call noundef i32 @_ZNK8TGAImage5widthEv(ptr noundef nonnull align 8 dereferenceable(40) %17)
  %19 = sitofp i32 %18 to double
  %20 = fmul double %16, %19
  %21 = fptosi double %20 to i32
  %22 = load ptr, ptr %5, align 8, !tbaa !74
  %23 = call noundef double @_ZNK3vecILi2EEixEi(ptr noundef nonnull align 8 dereferenceable(16) %22, i32 noundef 1)
  %24 = getelementptr inbounds nuw %class.Model, ptr %13, i32 0, i32 7
  %25 = call noundef i32 @_ZNK8TGAImage6heightEv(ptr noundef nonnull align 8 dereferenceable(40) %24)
  %26 = sitofp i32 %25 to double
  %27 = fmul double %23, %26
  %28 = fptosi double %27 to i32
  %29 = call i40 @_ZNK8TGAImage3getEii(ptr noundef nonnull align 8 dereferenceable(40) %14, i32 noundef %21, i32 noundef %28)
  store i40 %29, ptr %6, align 1
  call void @llvm.lifetime.start.p0(i64 24, ptr %7) #3
  call void @llvm.lifetime.start.p0(i64 24, ptr %8) #3
  call void @llvm.lifetime.start.p0(i64 24, ptr %9) #3
  %30 = getelementptr inbounds nuw %struct.vec, ptr %9, i32 0, i32 0
  %31 = call noundef nonnull align 1 dereferenceable(1) ptr @_ZN8TGAColorixEi(ptr noundef nonnull align 1 dereferenceable(5) %6, i32 noundef 2)
  %32 = load i8, ptr %31, align 1, !tbaa !169
  %33 = uitofp i8 %32 to double
  store double %33, ptr %30, align 8, !tbaa !64
  %34 = getelementptr inbounds nuw %struct.vec, ptr %9, i32 0, i32 1
  %35 = call noundef nonnull align 1 dereferenceable(1) ptr @_ZN8TGAColorixEi(ptr noundef nonnull align 1 dereferenceable(5) %6, i32 noundef 1)
  %36 = load i8, ptr %35, align 1, !tbaa !169
  %37 = uitofp i8 %36 to double
  store double %37, ptr %34, align 8, !tbaa !66
  %38 = getelementptr inbounds nuw %struct.vec, ptr %9, i32 0, i32 2
  %39 = call noundef nonnull align 1 dereferenceable(1) ptr @_ZN8TGAColorixEi(ptr noundef nonnull align 1 dereferenceable(5) %6, i32 noundef 0)
  %40 = load i8, ptr %39, align 1, !tbaa !169
  %41 = uitofp i8 %40 to double
  store double %41, ptr %38, align 8, !tbaa !67
  call void @llvm.lifetime.start.p0(i64 8, ptr %10) #3
  store double 2.000000e+00, ptr %10, align 8, !tbaa !73
  call void @_ZmlILi3EE3vecIXT_EERKS1_RKd(ptr dead_on_unwind writable sret(%struct.vec) align 8 %8, ptr noundef nonnull align 8 dereferenceable(24) %9, ptr noundef nonnull align 8 dereferenceable(8) %10)
  call void @llvm.lifetime.start.p0(i64 8, ptr %11) #3
  store double 2.550000e+02, ptr %11, align 8, !tbaa !73
  call void @_ZdvILi3EE3vecIXT_EERKS1_RKd(ptr dead_on_unwind writable sret(%struct.vec) align 8 %7, ptr noundef nonnull align 8 dereferenceable(24) %8, ptr noundef nonnull align 8 dereferenceable(8) %11)
  call void @llvm.lifetime.start.p0(i64 24, ptr %12) #3
  %42 = getelementptr inbounds nuw %struct.vec, ptr %12, i32 0, i32 0
  store double 1.000000e+00, ptr %42, align 8, !tbaa !64
  %43 = getelementptr inbounds nuw %struct.vec, ptr %12, i32 0, i32 1
  store double 1.000000e+00, ptr %43, align 8, !tbaa !66
  %44 = getelementptr inbounds nuw %struct.vec, ptr %12, i32 0, i32 2
  store double 1.000000e+00, ptr %44, align 8, !tbaa !67
  call void @_ZmiILi3EE3vecIXT_EERKS1_S3_(ptr dead_on_unwind writable sret(%struct.vec) align 8 %0, ptr noundef nonnull align 8 dereferenceable(24) %7, ptr noundef nonnull align 8 dereferenceable(24) %12)
  call void @llvm.lifetime.end.p0(i64 24, ptr %12) #3
  call void @llvm.lifetime.end.p0(i64 8, ptr %11) #3
  call void @llvm.lifetime.end.p0(i64 8, ptr %10) #3
  call void @llvm.lifetime.end.p0(i64 24, ptr %9) #3
  call void @llvm.lifetime.end.p0(i64 24, ptr %8) #3
  call void @llvm.lifetime.end.p0(i64 24, ptr %7) #3
  call void @llvm.lifetime.end.p0(i64 5, ptr %6) #3
  ret void
}