; Function Attrs: mustprogress uwtable
define dso_local void @_ZNK5Model6normalERK3vecILi2EE(ptr dead_on_unwind noalias writable sret(%struct.vec) align 8 captures(none) %0, ptr noundef nonnull align 8 dereferenceable(264) %1, ptr noundef nonnull readonly align 8 captures(none) dereferenceable(16) %2) local_unnamed_addr #3 align 2 {
  %4 = alloca %struct.vec, align 8
  %5 = getelementptr inbounds nuw i8, ptr %1, i64 184
  %6 = load double, ptr %2, align 8, !tbaa !49
  %7 = tail call noundef i32 @_ZNK8TGAImage5widthEv(ptr noundef nonnull align 8 dereferenceable(40) %5)
  %8 = sitofp i32 %7 to double
  %9 = fmul double %6, %8
  %10 = fptosi double %9 to i32
  %.in.i = getelementptr inbounds nuw i8, ptr %2, i64 8
  %11 = load double, ptr %.in.i, align 8, !tbaa !49
  %12 = tail call noundef i32 @_ZNK8TGAImage6heightEv(ptr noundef nonnull align 8 dereferenceable(40) %5)
  %13 = sitofp i32 %12 to double
  %14 = fmul double %11, %13
  %15 = fptosi double %14 to i32
  %16 = tail call i40 @_ZNK8TGAImage3getEii(ptr noundef nonnull align 8 dereferenceable(40) %5, i32 noundef %10, i32 noundef %15)
  %.sroa.015.0.extract.trunc = trunc i40 %16 to i8
  %.sroa.416.0.extract.shift = lshr i40 %16, 8
  %.sroa.416.0.extract.trunc = trunc i40 %.sroa.416.0.extract.shift to i8
  %.sroa.517.0.extract.shift = lshr i40 %16, 16
  %.sroa.517.0.extract.trunc = trunc i40 %.sroa.517.0.extract.shift to i8
  %17 = uitofp i8 %.sroa.517.0.extract.trunc to double
  %18 = uitofp i8 %.sroa.416.0.extract.trunc to double
  %19 = uitofp i8 %.sroa.015.0.extract.trunc to double
  store double %17, ptr %4, align 8, !tbaa !49
  %.sroa.414.0..sroa_idx = getelementptr inbounds nuw i8, ptr %4, i64 8
  store double %18, ptr %.sroa.414.0..sroa_idx, align 8, !tbaa !49
  %.sroa.5.0..sroa_idx = getelementptr inbounds nuw i8, ptr %4, i64 16
  store double %19, ptr %.sroa.5.0..sroa_idx, align 8, !tbaa !49
  br label %20

20:                                               ; preds = %20, %3
  %.03.i = phi i32 [ 3, %3 ], [ %21, %20 ]
  %21 = add nsw i32 %.03.i, -1
  %.not.i.i = icmp eq i32 %21, 0
  %22 = icmp eq i32 %21, 1
  %.v.i.i = select i1 %22, i64 8, i64 16
  %.idx.i.i = select i1 %.not.i.i, i64 0, i64 %.v.i.i
  %23 = getelementptr inbounds nuw i8, ptr %4, i64 %.idx.i.i
  %24 = load double, ptr %23, align 8, !tbaa !49, !alias.scope !102
  %25 = fmul double %24, 2.000000e+00
  store double %25, ptr %23, align 8, !tbaa !49, !alias.scope !102
  br i1 %.not.i.i, label %_ZmlILi3EE3vecIXT_EERKS1_RKd.exit, label %20, !llvm.loop !105

_ZmlILi3EE3vecIXT_EERKS1_RKd.exit:                ; preds = %20, %_ZmlILi3EE3vecIXT_EERKS1_RKd.exit
  %.03.i3 = phi i32 [ %26, %_ZmlILi3EE3vecIXT_EERKS1_RKd.exit ], [ 3, %20 ]
  %26 = add nsw i32 %.03.i3, -1
  %.not.i.i4 = icmp eq i32 %26, 0
  %27 = icmp eq i32 %26, 1
  %.v.i.i5 = select i1 %27, i64 8, i64 16
  %.idx.i.i6 = select i1 %.not.i.i4, i64 0, i64 %.v.i.i5
  %28 = getelementptr inbounds nuw i8, ptr %4, i64 %.idx.i.i6
  %29 = load double, ptr %28, align 8, !tbaa !49, !alias.scope !106
  %30 = fdiv double %29, 2.550000e+02
  store double %30, ptr %28, align 8, !tbaa !49, !alias.scope !106
  br i1 %.not.i.i4, label %_ZdvILi3EE3vecIXT_EERKS1_RKd.exit, label %_ZmlILi3EE3vecIXT_EERKS1_RKd.exit, !llvm.loop !65

_ZdvILi3EE3vecIXT_EERKS1_RKd.exit:                ; preds = %_ZmlILi3EE3vecIXT_EERKS1_RKd.exit
  call void @llvm.memcpy.p0.p0.i64(ptr noundef nonnull align 8 dereferenceable(24) %0, ptr noundef nonnull align 8 dereferenceable(24) %4, i64 24, i1 false), !tbaa.struct !48
  br label %_ZNK3vecILi3EEixEi.exit.i

_ZNK3vecILi3EEixEi.exit.i:                        ; preds = %_ZNK3vecILi3EEixEi.exit.i, %_ZdvILi3EE3vecIXT_EERKS1_RKd.exit
  %.04.i = phi i32 [ 3, %_ZdvILi3EE3vecIXT_EERKS1_RKd.exit ], [ %31, %_ZNK3vecILi3EEixEi.exit.i ]
  %31 = add nsw i32 %.04.i, -1
  %.not.i.i7 = icmp eq i32 %31, 0
  %32 = icmp eq i32 %31, 1
  %.v.i.i8 = select i1 %32, i64 8, i64 16
  %.idx.i.i9 = select i1 %.not.i.i7, i64 0, i64 %.v.i.i8
  %33 = getelementptr inbounds nuw i8, ptr %0, i64 %.idx.i.i9
  %34 = load double, ptr %33, align 8, !tbaa !49, !alias.scope !109
  %35 = fadd double %34, -1.000000e+00
  store double %35, ptr %33, align 8, !tbaa !49, !alias.scope !109
  br i1 %.not.i.i7, label %_ZmiILi3EE3vecIXT_EERKS1_S3_.exit, label %_ZNK3vecILi3EEixEi.exit.i, !llvm.loop !112

_ZmiILi3EE3vecIXT_EERKS1_S3_.exit:                ; preds = %_ZNK3vecILi3EEixEi.exit.i
  ret void
}